target datalayout = "e-m:e-p270:32:32-p271:32:32-p272:64:64-i64:64-i128:128-f80:128-n8:16:32:64-S128"
target triple = "x86_64-pc-linux-gnu"

%"struct.faiss::ClusteringParameters" = type { i32, i32, i8, i8, i8, i8, i8, i32, i32, i32, i64 }
%"struct.faiss::IndexBinary" = type { ptr, i32, i32, i64, i8, i8, i32 }
%"struct.faiss::IndexBinaryIVF" = type { %"struct.faiss::IndexBinary", ptr, i8, i64, i64, i8, i8, %"struct.faiss::DirectMap", ptr, i64, i8, %"struct.faiss::ClusteringParameters", ptr }
%"struct.faiss::DirectMap" = type { i32, %"class.std::vector", %"class.std::unordered_map" }
%"class.std::vector" = type { %"struct.std::_Vector_base" }
%"struct.std::_Vector_base" = type { %"struct.std::_Vector_base<long, std::allocator<long>>::_Vector_impl" }
%"struct.std::_Vector_base<long, std::allocator<long>>::_Vector_impl" = type { %"struct.std::_Vector_base<long, std::allocator<long>>::_Vector_impl_data" }
%"struct.std::_Vector_base<long, std::allocator<long>>::_Vector_impl_data" = type { ptr, ptr, ptr }
%"class.std::unordered_map" = type { %"class.std::_Hashtable" }
%"class.std::_Hashtable" = type { ptr, i64, %"struct.std::__detail::_Hash_node_base", i64, %"struct.std::__detail::_Prime_rehash_policy", ptr }
%"struct.std::__detail::_Hash_node_base" = type { ptr }
%"struct.std::__detail::_Prime_rehash_policy" = type { float, i64 }

; Function Attrs: mustprogress uwtable
define void @_ZN5faiss14IndexBinaryIVF15make_direct_mapEb(ptr noundef nonnull align 8 dereferenceable(232) %0, i1 noundef zeroext %1) #1 align 2 {
  %3 = alloca ptr, align 8
  %4 = alloca i8, align 1
  store ptr %0, ptr %3, align 8
  %5 = zext i1 %1 to i8
  store i8 %5, ptr %4, align 1
  %6 = load ptr, ptr %3, align 8
  %7 = load i8, ptr %4, align 1
  %8 = trunc i8 %7 to i1
  br i1 %8, label %9, label %15

9:                                                ; preds = %2
  %10 = getelementptr inbounds %"struct.faiss::IndexBinaryIVF", ptr %6, i32 0, i32 7
  %11 = getelementptr inbounds %"struct.faiss::IndexBinaryIVF", ptr %6, i32 0, i32 1
  %12 = load ptr, ptr %11, align 8
  %13 = getelementptr inbounds %"struct.faiss::IndexBinary", ptr %6, i32 0, i32 3
  %14 = load i64, ptr %13, align 8
  call void @_ZN5faiss9DirectMap8set_typeENS0_4TypeEPKNS_13InvertedListsEm(ptr noundef nonnull align 8 dereferenceable(88) %10, i32 noundef 1, ptr noundef %12, i64 noundef %14)
  br label %21

15:                                               ; preds = %2
  %16 = getelementptr inbounds %"struct.faiss::IndexBinaryIVF", ptr %6, i32 0, i32 7
  %17 = getelementptr inbounds %"struct.faiss::IndexBinaryIVF", ptr %6, i32 0, i32 1
  %18 = load ptr, ptr %17, align 8
  %19 = getelementptr inbounds %"struct.faiss::IndexBinary", ptr %6, i32 0, i32 3
  %20 = load i64, ptr %19, align 8
  call void @_ZN5faiss9DirectMap8set_typeENS0_4TypeEPKNS_13InvertedListsEm(ptr noundef nonnull align 8 dereferenceable(88) %16, i32 noundef 0, ptr noundef %18, i64 noundef %20)
  br label %21

21:                                               ; preds = %15, %9
  ret void
}