; Function Attrs: mustprogress uwtable
define void @_ZN5faiss14IndexBinaryIVF15make_direct_mapEb(ptr noundef nonnull align 8 dereferenceable(232) %0, i1 noundef zeroext %1) local_unnamed_addr #1 align 2 {
  %3 = getelementptr inbounds i8, ptr %0, i64 72
  %4 = getelementptr inbounds i8, ptr %0, i64 32
  %5 = load ptr, ptr %4, align 8
  %6 = getelementptr inbounds i8, ptr %0, i64 16
  %7 = load i64, ptr %6, align 8
  %. = zext i1 %1 to i32
  tail call void @_ZN5faiss9DirectMap8set_typeENS0_4TypeEPKNS_13InvertedListsEm(ptr noundef nonnull align 8 dereferenceable(88) %3, i32 noundef %., ptr noundef %5, i64 noundef %7)
  ret void
}